target datalayout = "e-m:e-p270:32:32-p271:32:32-p272:64:64-i64:64-i128:128-f80:128-n8:16:32:64-S128"
target triple = "x86_64-pc-linux-gnu"

@.str.98 = private unnamed_addr constant [5 x i8] c"LDAP\00", align 1
@.str.285 = private unnamed_addr constant [10 x i8] c"ldap.name\00", align 1
@.str.491 = private unnamed_addr constant [38 x i8] c"Lightweight Directory Access Protocol\00", align 1
@.str.492 = private unnamed_addr constant [5 x i8] c"ldap\00", align 1
@proto_ldap = internal global i32 0, align 4
@ldap_handle = internal global ptr null, align 8
@.str.493 = private unnamed_addr constant [24 x i8] c"desegment_ldap_messages\00", align 1
@.str.494 = private unnamed_addr constant [56 x i8] c"Reassemble LDAP messages spanning multiple TCP segments\00", align 1
@.str.495 = private unnamed_addr constant [205 x i8] c"Whether the LDAP dissector should reassemble messages spanning multiple TCP segments. To use this option, you must also enable \22Allow subdissectors to reassemble TCP streams\22 in the TCP protocol settings.\00", align 1
@ldap_desegment = internal global i8 1, align 1
@.str.496 = private unnamed_addr constant [9 x i8] c"tls.port\00", align 1
@.str.497 = private unnamed_addr constant [15 x i8] c"LDAPS TCP Port\00", align 1
@.str.498 = private unnamed_addr constant [42 x i8] c"Set the port for LDAP operations over TLS\00", align 1
@global_ldaps_tcp_port = internal global i32 636, align 4
@.str.499 = private unnamed_addr constant [9 x i8] c"ssl.port\00", align 1
@.str.500 = private unnamed_addr constant [33 x i8] c"Custom LDAP AttributeValue types\00", align 1
@.str.501 = private unnamed_addr constant [28 x i8] c"custom_ldap_attribute_types\00", align 1
@attribute_types = internal global ptr null, align 8
@num_attribute_types = internal global i32 0, align 4
@.str.502 = private unnamed_addr constant [28 x i8] c"Custom AttributeValue types\00", align 1
@.str.503 = private unnamed_addr constant [126 x i8] c"A table to define custom LDAP attribute type values for which fields can be setup and used for filtering/data extraction etc.\00", align 1
@.str.504 = private unnamed_addr constant [8 x i8] c"max_pdu\00", align 1
@.str.505 = private unnamed_addr constant [53 x i8] c"Connectionless Lightweight Directory Access Protocol\00", align 1
@.str.506 = private unnamed_addr constant [6 x i8] c"CLDAP\00", align 1
@.str.507 = private unnamed_addr constant [6 x i8] c"cldap\00", align 1
@proto_cldap = internal global i32 0, align 4
@cldap_handle = internal global ptr null, align 8
@ldap_tap = internal global i32 0, align 4
@.str.508 = private unnamed_addr constant [31 x i8] c"LDAP Attribute Type Dissectors\00", align 1
@ldap_name_dissector_table = internal global ptr null, align 8

; Function Attrs: null_pointer_is_valid sspstrong uwtable
define hidden void @proto_register_ldap() #0 {
  %1 = alloca ptr, align 8
  %2 = alloca ptr, align 8
  %3 = alloca ptr, align 8
  call void @llvm.lifetime.start.p0(i64 8, ptr %1) #16
  call void @llvm.lifetime.start.p0(i64 8, ptr %2) #16
  call void @llvm.lifetime.start.p0(i64 8, ptr %3) #16
  %4 = call i32 @proto_register_protocol(ptr noundef @.str.491, ptr noundef @.str.98, ptr noundef @.str.492)
  store i32 %4, ptr @proto_ldap, align 4
  %5 = load i32, ptr @proto_ldap, align 4
  call void @proto_register_field_array(i32 noundef %5, ptr noundef @proto_register_ldap.hf, i32 noundef 209)
  call void @proto_register_subtree_array(ptr noundef @proto_register_ldap.ett, i32 noundef 63)
  %6 = load i32, ptr @proto_ldap, align 4
  %7 = call ptr @expert_register_protocol(i32 noundef %6)
  store ptr %7, ptr %1, align 8
  %8 = load ptr, ptr %1, align 8
  call void @expert_register_field_array(ptr noundef %8, ptr noundef @proto_register_ldap.ei, i32 noundef 2)
  %9 = load i32, ptr @proto_ldap, align 4
  %10 = call ptr @register_dissector(ptr noundef @.str.492, ptr noundef @dissect_ldap_tcp, i32 noundef %9)
  store ptr %10, ptr @ldap_handle, align 8
  %11 = load i32, ptr @proto_ldap, align 4
  %12 = call ptr @prefs_register_protocol(i32 noundef %11, ptr noundef @prefs_register_ldap)
  store ptr %12, ptr %2, align 8
  %13 = load ptr, ptr %2, align 8
  call void @prefs_register_bool_preference(ptr noundef %13, ptr noundef @.str.493, ptr noundef @.str.494, ptr noundef @.str.495, ptr noundef @ldap_desegment)
  %14 = load ptr, ptr %2, align 8
  call void @prefs_register_uint_preference(ptr noundef %14, ptr noundef @.str.496, ptr noundef @.str.497, ptr noundef @.str.498, i32 noundef 10, ptr noundef @global_ldaps_tcp_port)
  %15 = load ptr, ptr %2, align 8
  call void @prefs_register_obsolete_preference(ptr noundef %15, ptr noundef @.str.499)
  %16 = call ptr @uat_new(ptr noundef @.str.500, i64 noundef 16, ptr noundef @.str.501, i1 noundef zeroext true, ptr noundef @attribute_types, ptr noundef @num_attribute_types, i32 noundef 3, ptr noundef null, ptr noundef @attribute_types_copy_cb, ptr noundef @attribute_types_update_cb, ptr noundef @attribute_types_free_cb, ptr noundef @attribute_types_post_update_cb, ptr noundef @attribute_types_reset_cb, ptr noundef @proto_register_ldap.custom_attribute_types_uat_fields)
  store ptr %16, ptr %3, align 8
  %17 = load ptr, ptr %2, align 8
  %18 = load ptr, ptr %3, align 8
  call void @prefs_register_uat_preference(ptr noundef %17, ptr noundef @.str.501, ptr noundef @.str.502, ptr noundef @.str.503, ptr noundef %18)
  %19 = load ptr, ptr %2, align 8
  call void @prefs_register_obsolete_preference(ptr noundef %19, ptr noundef @.str.504)
  %20 = call i32 @proto_register_protocol(ptr noundef @.str.505, ptr noundef @.str.506, ptr noundef @.str.507)
  store i32 %20, ptr @proto_cldap, align 4
  %21 = load i32, ptr @proto_cldap, align 4
  %22 = call ptr @register_dissector(ptr noundef @.str.507, ptr noundef @dissect_mscldap, i32 noundef %21)
  store ptr %22, ptr @cldap_handle, align 8
  %23 = call i32 @register_tap(ptr noundef @.str.492)
  store i32 %23, ptr @ldap_tap, align 4
  %24 = load i32, ptr @proto_cldap, align 4
  %25 = call ptr @register_dissector_table(ptr noundef @.str.285, ptr noundef @.str.508, i32 noundef %24, i32 noundef 26, i32 noundef 1)
  store ptr %25, ptr @ldap_name_dissector_table, align 8
  %26 = load i32, ptr @proto_ldap, align 4
  call void @register_srt_table(i32 noundef %26, ptr noundef null, i32 noundef 1, ptr noundef @ldapstat_packet, ptr noundef @ldapstat_init, ptr noundef null)
  call void @llvm.lifetime.end.p0(i64 8, ptr %3) #16
  call void @llvm.lifetime.end.p0(i64 8, ptr %2) #16
  call void @llvm.lifetime.end.p0(i64 8, ptr %1) #16
  ret void
}