; Function Attrs: null_pointer_is_valid sspstrong uwtable
define hidden void @proto_register_ldap() local_unnamed_addr #0 {
  %1 = tail call i32 @proto_register_protocol(ptr noundef nonnull @.str.491, ptr noundef nonnull @.str.98, ptr noundef nonnull @.str.492)
  store i32 %1, ptr @proto_ldap, align 4
  tail call void @proto_register_field_array(i32 noundef %1, ptr noundef nonnull @proto_register_ldap.hf, i32 noundef 209)
  tail call void @proto_register_subtree_array(ptr noundef nonnull @proto_register_ldap.ett, i32 noundef 63)
  %2 = load i32, ptr @proto_ldap, align 4
  %3 = tail call ptr @expert_register_protocol(i32 noundef %2)
  tail call void @expert_register_field_array(ptr noundef %3, ptr noundef nonnull @proto_register_ldap.ei, i32 noundef 2)
  %4 = load i32, ptr @proto_ldap, align 4
  %5 = tail call ptr @register_dissector(ptr noundef nonnull @.str.492, ptr noundef nonnull @dissect_ldap_tcp, i32 noundef %4)
  store ptr %5, ptr @ldap_handle, align 8
  %6 = load i32, ptr @proto_ldap, align 4
  %7 = tail call ptr @prefs_register_protocol(i32 noundef %6, ptr noundef nonnull @prefs_register_ldap)
  tail call void @prefs_register_bool_preference(ptr noundef %7, ptr noundef nonnull @.str.493, ptr noundef nonnull @.str.494, ptr noundef nonnull @.str.495, ptr noundef nonnull @ldap_desegment)
  tail call void @prefs_register_uint_preference(ptr noundef %7, ptr noundef nonnull @.str.496, ptr noundef nonnull @.str.497, ptr noundef nonnull @.str.498, i32 noundef 10, ptr noundef nonnull @global_ldaps_tcp_port)
  tail call void @prefs_register_obsolete_preference(ptr noundef %7, ptr noundef nonnull @.str.499)
  %8 = tail call ptr @uat_new(ptr noundef nonnull @.str.500, i64 noundef 16, ptr noundef nonnull @.str.501, i1 noundef zeroext true, ptr noundef nonnull @attribute_types, ptr noundef nonnull @num_attribute_types, i32 noundef 3, ptr noundef null, ptr noundef nonnull @attribute_types_copy_cb, ptr noundef nonnull @attribute_types_update_cb, ptr noundef nonnull @attribute_types_free_cb, ptr noundef nonnull @attribute_types_post_update_cb, ptr noundef nonnull @attribute_types_reset_cb, ptr noundef nonnull @proto_register_ldap.custom_attribute_types_uat_fields)
  tail call void @prefs_register_uat_preference(ptr noundef %7, ptr noundef nonnull @.str.501, ptr noundef nonnull @.str.502, ptr noundef nonnull @.str.503, ptr noundef %8)
  tail call void @prefs_register_obsolete_preference(ptr noundef %7, ptr noundef nonnull @.str.504)
  %9 = tail call i32 @proto_register_protocol(ptr noundef nonnull @.str.505, ptr noundef nonnull @.str.506, ptr noundef nonnull @.str.507)
  store i32 %9, ptr @proto_cldap, align 4
  %10 = tail call ptr @register_dissector(ptr noundef nonnull @.str.507, ptr noundef nonnull @dissect_mscldap, i32 noundef %9)
  store ptr %10, ptr @cldap_handle, align 8
  %11 = tail call i32 @register_tap(ptr noundef nonnull @.str.492)
  store i32 %11, ptr @ldap_tap, align 4
  %12 = load i32, ptr @proto_cldap, align 4
  %13 = tail call ptr @register_dissector_table(ptr noundef nonnull @.str.285, ptr noundef nonnull @.str.508, i32 noundef %12, i32 noundef 26, i32 noundef 1)
  store ptr %13, ptr @ldap_name_dissector_table, align 8
  %14 = load i32, ptr @proto_ldap, align 4
  tail call void @register_srt_table(i32 noundef %14, ptr noundef null, i32 noundef 1, ptr noundef nonnull @ldapstat_packet, ptr noundef nonnull @ldapstat_init, ptr noundef null)
  ret void
}